#include <math.h>
#include <stdio.h>
#include <stdlib.h>
#include <string.h>

int main()
{
	int u[1000],v[1000];
	int i,j,n,k,a=0;
	scanf("%d%d",&n,&k);
	for(i=0;i<n;i++){
		scanf("%d",&u[i]);
	}
	for(j=0;j<n;j++){
		v[j]=u[j];
	}
	for(i=0;i<n;i++){
		for(j=0;j<n;j++){
			if(i==j){
				continue;
			}else {
				if(u[i]+v[j]==k){
					a++;
				}else{
					continue;
				}
			}
		}
	}
	if(a==0){
		printf("no");
	}else{
		printf("yes");
	}
	return 0;
}

